; Function Attrs: nounwind uwtable
define ptr @l_Lean_IR_NormalizeIds_normIndex(ptr noundef %0, ptr noundef %1) local_unnamed_addr #0 {
  %3 = tail call ptr @l_Lean_RBNode_find___at_Lean_IR_VarId_alphaEqv___spec__1(ptr noundef %1, ptr noundef %0) #4
  %4 = ptrtoint ptr %3 to i64
  %5 = and i64 %4, 1
  %.not.i11 = icmp eq i64 %5, 0
  br i1 %.not.i11, label %9, label %6

6:                                                ; preds = %2
  %7 = lshr i64 %4, 1
  %8 = trunc i64 %7 to i32
  br label %lean_obj_tag.exit

9:                                                ; preds = %2
  %10 = getelementptr i8, ptr %3, i64 4
  %.val.i = load i32, ptr %10, align 4
  %11 = lshr i32 %.val.i, 24
  br label %lean_obj_tag.exit

lean_obj_tag.exit:                                ; preds = %6, %9
  %.0.i = phi i32 [ %8, %6 ], [ %11, %9 ]
  %12 = icmp eq i32 %.0.i, 0
  br i1 %12, label %13, label %22

13:                                               ; preds = %lean_obj_tag.exit
  %14 = ptrtoint ptr %0 to i64
  %15 = and i64 %14, 1
  %.not18 = icmp eq i64 %15, 0
  br i1 %.not18, label %16, label %lean_inc.exit10

16:                                               ; preds = %13
  %.val.i12 = load i32, ptr %0, align 4, !tbaa !9
  %17 = icmp sgt i32 %.val.i12, 0
  br i1 %17, label %18, label %20, !prof !12

18:                                               ; preds = %16
  %19 = add nuw i32 %.val.i12, 1
  store i32 %19, ptr %0, align 4, !tbaa !9
  br label %lean_inc.exit10

20:                                               ; preds = %16
  %.not.i13 = icmp eq i32 %.val.i12, 0
  br i1 %.not.i13, label %lean_inc.exit10, label %21

21:                                               ; preds = %20
  tail call void @lean_inc_ref_cold(ptr noundef nonnull %0) #4
  br label %lean_inc.exit10

22:                                               ; preds = %lean_obj_tag.exit
  %23 = getelementptr inbounds nuw i8, ptr %3, i64 8
  %24 = load ptr, ptr %23, align 8, !tbaa !5
  %25 = ptrtoint ptr %24 to i64
  %26 = and i64 %25, 1
  %.not = icmp eq i64 %26, 0
  br i1 %.not, label %27, label %lean_inc.exit

27:                                               ; preds = %22
  %.val.i14 = load i32, ptr %24, align 4, !tbaa !9
  %28 = icmp sgt i32 %.val.i14, 0
  br i1 %28, label %29, label %31, !prof !12

29:                                               ; preds = %27
  %30 = add nuw i32 %.val.i14, 1
  store i32 %30, ptr %24, align 4, !tbaa !9
  br label %lean_inc.exit

31:                                               ; preds = %27
  %.not.i15 = icmp eq i32 %.val.i14, 0
  br i1 %.not.i15, label %lean_inc.exit, label %32

32:                                               ; preds = %31
  tail call void @lean_inc_ref_cold(ptr noundef nonnull %24) #4
  br label %lean_inc.exit

lean_inc.exit:                                    ; preds = %32, %31, %29, %22
  br i1 %.not.i11, label %33, label %lean_inc.exit10

33:                                               ; preds = %lean_inc.exit
  %34 = load i32, ptr %3, align 4, !tbaa !9
  %35 = icmp sgt i32 %34, 1
  br i1 %35, label %36, label %38, !prof !12

36:                                               ; preds = %33
  %37 = add nsw i32 %34, -1
  store i32 %37, ptr %3, align 4, !tbaa !9
  br label %lean_inc.exit10

38:                                               ; preds = %33
  %.not.i = icmp eq i32 %34, 0
  br i1 %.not.i, label %lean_inc.exit10, label %39

39:                                               ; preds = %38
  tail call void @lean_dec_ref_cold(ptr noundef nonnull %3) #4
  br label %lean_inc.exit10

lean_inc.exit10:                                  ; preds = %lean_inc.exit, %36, %38, %39, %13, %18, %20, %21
  %.0 = phi ptr [ %0, %21 ], [ %0, %20 ], [ %0, %18 ], [ %0, %13 ], [ %24, %39 ], [ %24, %38 ], [ %24, %36 ], [ %24, %lean_inc.exit ]
  ret ptr %.0
}